; Function Attrs: mustprogress nofree norecurse nosync nounwind willreturn memory(argmem: write) uwtable
define hidden void @_ZN17opencv_tensorflow9AttrValueC2EPN6google8protobuf5ArenaEb(ptr noundef nonnull writeonly align 8 captures(none) dereferenceable(32) initializes((0, 16), (24, 32)) %0, ptr noundef %1, i1 noundef zeroext %2) unnamed_addr #4 align 2 personality ptr @__gxx_personality_v0 {
  %4 = getelementptr inbounds nuw i8, ptr %0, i64 8
  %5 = ptrtoint ptr %1 to i64
  %6 = or i64 %5, 2
  %7 = select i1 %2, i64 %6, i64 %5
  store i64 %7, ptr %4, align 8, !tbaa !16
  store ptr getelementptr inbounds nuw inrange(-16, 152) (i8, ptr @_ZTVN17opencv_tensorflow9AttrValueE, i64 16), ptr %0, align 8, !tbaa !19
  %8 = getelementptr inbounds nuw i8, ptr %0, i64 24
  store i32 0, ptr %8, align 8, !tbaa !42
  %9 = getelementptr inbounds nuw i8, ptr %0, i64 28
  store i32 0, ptr %9, align 4, !tbaa !79
  ret void
}